target datalayout = "e-m:e-p270:32:32-p271:32:32-p272:64:64-i64:64-i128:128-f80:128-n8:16:32:64-S128"
target triple = "x86_64-pc-linux-gnu"

%"class.arrow_vendored::double_conversion::Bignum" = type { i16, i16, [128 x i32] }

; Function Attrs: mustprogress nounwind uwtable
define internal noundef signext i8 @_ZN14arrow_vendored17double_conversionL14HexCharOfValueEi(i32 noundef %0) #0 {
  %2 = alloca i8, align 1
  %3 = alloca i32, align 4
  store i32 %0, ptr %3, align 4, !tbaa !8
  %4 = load i32, ptr %3, align 4, !tbaa !8
  %5 = icmp slt i32 %4, 10
  br i1 %5, label %6, label %10

6:                                                ; preds = %1
  %7 = load i32, ptr %3, align 4, !tbaa !8
  %8 = add nsw i32 %7, 48
  %9 = trunc i32 %8 to i8
  store i8 %9, ptr %2, align 1
  br label %15

10:                                               ; preds = %1
  %11 = load i32, ptr %3, align 4, !tbaa !8
  %12 = sub nsw i32 %11, 10
  %13 = add nsw i32 %12, 65
  %14 = trunc i32 %13 to i8
  store i8 %14, ptr %2, align 1
  br label %15

15:                                               ; preds = %10, %6
  %16 = load i8, ptr %2, align 1
  ret i8 %16
}

; Function Attrs: mustprogress nounwind uwtable
define internal noundef i32 @_ZN14arrow_vendored17double_conversionL14SizeInHexCharsIjEEiT_(i32 noundef %0) #0 {
  %2 = alloca i32, align 4
  %3 = alloca i32, align 4
  store i32 %0, ptr %2, align 4, !tbaa !8
  call void @llvm.lifetime.start.p0(i64 4, ptr %3) #6
  store i32 0, ptr %3, align 4, !tbaa !8
  br label %4

4:                                                ; preds = %7, %1
  %5 = load i32, ptr %2, align 4, !tbaa !8
  %6 = icmp ne i32 %5, 0
  br i1 %6, label %7, label %12

7:                                                ; preds = %4
  %8 = load i32, ptr %2, align 4, !tbaa !8
  %9 = lshr i32 %8, 4
  store i32 %9, ptr %2, align 4, !tbaa !8
  %10 = load i32, ptr %3, align 4, !tbaa !8
  %11 = add nsw i32 %10, 1
  store i32 %11, ptr %3, align 4, !tbaa !8
  br label %4, !llvm.loop !73

12:                                               ; preds = %4
  %13 = load i32, ptr %3, align 4, !tbaa !8
  call void @llvm.lifetime.end.p0(i64 4, ptr %3) #6
  ret i32 %13
}

; Function Attrs: mustprogress nounwind uwtable
define noundef nonnull align 4 dereferenceable(4) ptr @_ZNK14arrow_vendored17double_conversion6Bignum8RawBigitEi(ptr noundef nonnull align 4 dereferenceable(516) %0, i32 noundef %1) #0 align 2 {
  %3 = alloca ptr, align 8
  %4 = alloca i32, align 4
  store ptr %0, ptr %3, align 8, !tbaa !3
  store i32 %1, ptr %4, align 4, !tbaa !8
  %5 = load ptr, ptr %3, align 8
  %6 = getelementptr inbounds nuw %"class.arrow_vendored::double_conversion::Bignum", ptr %5, i32 0, i32 2
  %7 = load i32, ptr %4, align 4, !tbaa !8
  %8 = sext i32 %7 to i64
  %9 = getelementptr inbounds [128 x i32], ptr %6, i64 0, i64 %8
  ret ptr %9
}

; Function Attrs: mustprogress nounwind uwtable
define linkonce_odr noundef i32 @_ZNK14arrow_vendored17double_conversion6Bignum11BigitLengthEv(ptr noundef nonnull align 4 dereferenceable(516) %0) #0 comdat align 2 {
  %2 = alloca ptr, align 8
  store ptr %0, ptr %2, align 8, !tbaa !3
  %3 = load ptr, ptr %2, align 8
  %4 = getelementptr inbounds nuw %"class.arrow_vendored::double_conversion::Bignum", ptr %3, i32 0, i32 0
  %5 = load i16, ptr %4, align 4, !tbaa !12
  %6 = sext i16 %5 to i32
  %7 = getelementptr inbounds nuw %"class.arrow_vendored::double_conversion::Bignum", ptr %3, i32 0, i32 1
  %8 = load i16, ptr %7, align 2, !tbaa !14
  %9 = sext i16 %8 to i32
  %10 = add nsw i32 %6, %9
  ret i32 %10
}

; Function Attrs: mustprogress uwtable
define noundef zeroext i1 @_ZNK14arrow_vendored17double_conversion6Bignum11ToHexStringEPci(ptr noundef nonnull align 4 dereferenceable(516) %0, ptr noundef %1, i32 noundef %2) #1 align 2 {
  %4 = alloca i1, align 1
  %5 = alloca ptr, align 8
  %6 = alloca ptr, align 8
  %7 = alloca i32, align 4
  %8 = alloca i32, align 4
  %9 = alloca i32, align 4
  %10 = alloca i32, align 4
  %11 = alloca i32, align 4
  %12 = alloca i32, align 4
  %13 = alloca i32, align 4
  %14 = alloca i32, align 4
  %15 = alloca i32, align 4
  %16 = alloca i32, align 4
  store ptr %0, ptr %5, align 8, !tbaa !3
  store ptr %1, ptr %6, align 8, !tbaa !21
  store i32 %2, ptr %7, align 4, !tbaa !8
  %17 = load ptr, ptr %5, align 8
  %18 = getelementptr inbounds nuw %"class.arrow_vendored::double_conversion::Bignum", ptr %17, i32 0, i32 0
  %19 = load i16, ptr %18, align 4, !tbaa !12
  %20 = sext i16 %19 to i32
  %21 = icmp eq i32 %20, 0
  br i1 %21, label %22, label %31

22:                                               ; preds = %3
  %23 = load i32, ptr %7, align 4, !tbaa !8
  %24 = icmp slt i32 %23, 2
  br i1 %24, label %25, label %26

25:                                               ; preds = %22
  store i1 false, ptr %4, align 1
  br label %139

26:                                               ; preds = %22
  %27 = load ptr, ptr %6, align 8, !tbaa !21
  %28 = getelementptr inbounds i8, ptr %27, i64 0
  store i8 48, ptr %28, align 1, !tbaa !28
  %29 = load ptr, ptr %6, align 8, !tbaa !21
  %30 = getelementptr inbounds i8, ptr %29, i64 1
  store i8 0, ptr %30, align 1, !tbaa !28
  store i1 true, ptr %4, align 1
  br label %139

31:                                               ; preds = %3
  call void @llvm.lifetime.start.p0(i64 4, ptr %8) #6
  %32 = call noundef i32 @_ZNK14arrow_vendored17double_conversion6Bignum11BigitLengthEv(ptr noundef nonnull align 4 dereferenceable(516) %17)
  %33 = sub nsw i32 %32, 1
  %34 = mul nsw i32 %33, 7
  %35 = getelementptr inbounds nuw %"class.arrow_vendored::double_conversion::Bignum", ptr %17, i32 0, i32 0
  %36 = load i16, ptr %35, align 4, !tbaa !12
  %37 = sext i16 %36 to i32
  %38 = sub nsw i32 %37, 1
  %39 = call noundef nonnull align 4 dereferenceable(4) ptr @_ZNK14arrow_vendored17double_conversion6Bignum8RawBigitEi(ptr noundef nonnull align 4 dereferenceable(516) %17, i32 noundef %38)
  %40 = load i32, ptr %39, align 4, !tbaa !8
  %41 = call noundef i32 @_ZN14arrow_vendored17double_conversionL14SizeInHexCharsIjEEiT_(i32 noundef %40)
  %42 = add nsw i32 %34, %41
  %43 = add nsw i32 %42, 1
  store i32 %43, ptr %8, align 4, !tbaa !8
  %44 = load i32, ptr %8, align 4, !tbaa !8
  %45 = load i32, ptr %7, align 4, !tbaa !8
  %46 = icmp sgt i32 %44, %45
  br i1 %46, label %47, label %48

47:                                               ; preds = %31
  store i1 false, ptr %4, align 1
  store i32 1, ptr %9, align 4
  br label %138

48:                                               ; preds = %31
  call void @llvm.lifetime.start.p0(i64 4, ptr %10) #6
  %49 = load i32, ptr %8, align 4, !tbaa !8
  %50 = sub nsw i32 %49, 1
  store i32 %50, ptr %10, align 4, !tbaa !8
  %51 = load ptr, ptr %6, align 8, !tbaa !21
  %52 = load i32, ptr %10, align 4, !tbaa !8
  %53 = add nsw i32 %52, -1
  store i32 %53, ptr %10, align 4, !tbaa !8
  %54 = sext i32 %52 to i64
  %55 = getelementptr inbounds i8, ptr %51, i64 %54
  store i8 0, ptr %55, align 1, !tbaa !28
  call void @llvm.lifetime.start.p0(i64 4, ptr %11) #6
  store i32 0, ptr %11, align 4, !tbaa !8
  br label %56

56:                                               ; preds = %78, %48
  %57 = load i32, ptr %11, align 4, !tbaa !8
  %58 = getelementptr inbounds nuw %"class.arrow_vendored::double_conversion::Bignum", ptr %17, i32 0, i32 1
  %59 = load i16, ptr %58, align 2, !tbaa !14
  %60 = sext i16 %59 to i32
  %61 = icmp slt i32 %57, %60
  br i1 %61, label %63, label %62

62:                                               ; preds = %56
  store i32 2, ptr %9, align 4
  call void @llvm.lifetime.end.p0(i64 4, ptr %11) #6
  br label %81

63:                                               ; preds = %56
  call void @llvm.lifetime.start.p0(i64 4, ptr %12) #6
  store i32 0, ptr %12, align 4, !tbaa !8
  br label %64

64:                                               ; preds = %74, %63
  %65 = load i32, ptr %12, align 4, !tbaa !8
  %66 = icmp slt i32 %65, 7
  br i1 %66, label %68, label %67

67:                                               ; preds = %64
  store i32 5, ptr %9, align 4
  call void @llvm.lifetime.end.p0(i64 4, ptr %12) #6
  br label %77

68:                                               ; preds = %64
  %69 = load ptr, ptr %6, align 8, !tbaa !21
  %70 = load i32, ptr %10, align 4, !tbaa !8
  %71 = add nsw i32 %70, -1
  store i32 %71, ptr %10, align 4, !tbaa !8
  %72 = sext i32 %70 to i64
  %73 = getelementptr inbounds i8, ptr %69, i64 %72
  store i8 48, ptr %73, align 1, !tbaa !28
  br label %74

74:                                               ; preds = %68
  %75 = load i32, ptr %12, align 4, !tbaa !8
  %76 = add nsw i32 %75, 1
  store i32 %76, ptr %12, align 4, !tbaa !8
  br label %64, !llvm.loop !68

77:                                               ; preds = %67
  br label %78

78:                                               ; preds = %77
  %79 = load i32, ptr %11, align 4, !tbaa !8
  %80 = add nsw i32 %79, 1
  store i32 %80, ptr %11, align 4, !tbaa !8
  br label %56, !llvm.loop !69

81:                                               ; preds = %62
  call void @llvm.lifetime.start.p0(i64 4, ptr %13) #6
  store i32 0, ptr %13, align 4, !tbaa !8
  br label %82

82:                                               ; preds = %113, %81
  %83 = load i32, ptr %13, align 4, !tbaa !8
  %84 = getelementptr inbounds nuw %"class.arrow_vendored::double_conversion::Bignum", ptr %17, i32 0, i32 0
  %85 = load i16, ptr %84, align 4, !tbaa !12
  %86 = sext i16 %85 to i32
  %87 = sub nsw i32 %86, 1
  %88 = icmp slt i32 %83, %87
  br i1 %88, label %90, label %89

89:                                               ; preds = %82
  store i32 8, ptr %9, align 4
  call void @llvm.lifetime.end.p0(i64 4, ptr %13) #6
  br label %116

90:                                               ; preds = %82
  call void @llvm.lifetime.start.p0(i64 4, ptr %14) #6
  %91 = load i32, ptr %13, align 4, !tbaa !8
  %92 = call noundef nonnull align 4 dereferenceable(4) ptr @_ZNK14arrow_vendored17double_conversion6Bignum8RawBigitEi(ptr noundef nonnull align 4 dereferenceable(516) %17, i32 noundef %91)
  %93 = load i32, ptr %92, align 4, !tbaa !8
  store i32 %93, ptr %14, align 4, !tbaa !8
  call void @llvm.lifetime.start.p0(i64 4, ptr %15) #6
  store i32 0, ptr %15, align 4, !tbaa !8
  br label %94

94:                                               ; preds = %109, %90
  %95 = load i32, ptr %15, align 4, !tbaa !8
  %96 = icmp slt i32 %95, 7
  br i1 %96, label %98, label %97

97:                                               ; preds = %94
  store i32 11, ptr %9, align 4
  call void @llvm.lifetime.end.p0(i64 4, ptr %15) #6
  br label %112

98:                                               ; preds = %94
  %99 = load i32, ptr %14, align 4, !tbaa !8
  %100 = and i32 %99, 15
  %101 = call noundef signext i8 @_ZN14arrow_vendored17double_conversionL14HexCharOfValueEi(i32 noundef %100)
  %102 = load ptr, ptr %6, align 8, !tbaa !21
  %103 = load i32, ptr %10, align 4, !tbaa !8
  %104 = add nsw i32 %103, -1
  store i32 %104, ptr %10, align 4, !tbaa !8
  %105 = sext i32 %103 to i64
  %106 = getelementptr inbounds i8, ptr %102, i64 %105
  store i8 %101, ptr %106, align 1, !tbaa !28
  %107 = load i32, ptr %14, align 4, !tbaa !8
  %108 = lshr i32 %107, 4
  store i32 %108, ptr %14, align 4, !tbaa !8
  br label %109

109:                                              ; preds = %98
  %110 = load i32, ptr %15, align 4, !tbaa !8
  %111 = add nsw i32 %110, 1
  store i32 %111, ptr %15, align 4, !tbaa !8
  br label %94, !llvm.loop !70

112:                                              ; preds = %97
  call void @llvm.lifetime.end.p0(i64 4, ptr %14) #6
  br label %113

113:                                              ; preds = %112
  %114 = load i32, ptr %13, align 4, !tbaa !8
  %115 = add nsw i32 %114, 1
  store i32 %115, ptr %13, align 4, !tbaa !8
  br label %82, !llvm.loop !71

116:                                              ; preds = %89
  call void @llvm.lifetime.start.p0(i64 4, ptr %16) #6
  %117 = getelementptr inbounds nuw %"class.arrow_vendored::double_conversion::Bignum", ptr %17, i32 0, i32 0
  %118 = load i16, ptr %117, align 4, !tbaa !12
  %119 = sext i16 %118 to i32
  %120 = sub nsw i32 %119, 1
  %121 = call noundef nonnull align 4 dereferenceable(4) ptr @_ZNK14arrow_vendored17double_conversion6Bignum8RawBigitEi(ptr noundef nonnull align 4 dereferenceable(516) %17, i32 noundef %120)
  %122 = load i32, ptr %121, align 4, !tbaa !8
  store i32 %122, ptr %16, align 4, !tbaa !8
  br label %123

123:                                              ; preds = %126, %116
  %124 = load i32, ptr %16, align 4, !tbaa !8
  %125 = icmp ne i32 %124, 0
  br i1 %125, label %126, label %137

126:                                              ; preds = %123
  %127 = load i32, ptr %16, align 4, !tbaa !8
  %128 = and i32 %127, 15
  %129 = call noundef signext i8 @_ZN14arrow_vendored17double_conversionL14HexCharOfValueEi(i32 noundef %128)
  %130 = load ptr, ptr %6, align 8, !tbaa !21
  %131 = load i32, ptr %10, align 4, !tbaa !8
  %132 = add nsw i32 %131, -1
  store i32 %132, ptr %10, align 4, !tbaa !8
  %133 = sext i32 %131 to i64
  %134 = getelementptr inbounds i8, ptr %130, i64 %133
  store i8 %129, ptr %134, align 1, !tbaa !28
  %135 = load i32, ptr %16, align 4, !tbaa !8
  %136 = lshr i32 %135, 4
  store i32 %136, ptr %16, align 4, !tbaa !8
  br label %123, !llvm.loop !72

137:                                              ; preds = %123
  store i1 true, ptr %4, align 1
  store i32 1, ptr %9, align 4
  call void @llvm.lifetime.end.p0(i64 4, ptr %16) #6
  call void @llvm.lifetime.end.p0(i64 4, ptr %10) #6
  br label %138

138:                                              ; preds = %137, %47
  call void @llvm.lifetime.end.p0(i64 4, ptr %8) #6
  br label %139

139:                                              ; preds = %138, %26, %25
  %140 = load i1, ptr %4, align 1
  ret i1 %140
}